target datalayout = "e-m:e-p270:32:32-p271:32:32-p272:64:64-i64:64-i128:128-f80:128-n8:16:32:64-S128"
target triple = "x86_64-pc-linux-gnu"

%struct._lv_fs_drv_t = type { i8, i32, ptr, ptr, ptr, ptr, ptr, ptr, ptr, ptr, ptr, ptr, ptr }
%struct.lv_fs_dir_t = type { ptr, ptr }

; Function Attrs: nounwind uwtable
define i32 @lv_fs_dir_close(ptr noundef %0) #0 {
  %2 = alloca i32, align 4
  %3 = alloca ptr, align 8
  %4 = alloca i32, align 4
  store ptr %0, ptr %3, align 8, !tbaa !6
  %5 = load ptr, ptr %3, align 8, !tbaa !6
  %6 = getelementptr inbounds nuw %struct.lv_fs_dir_t, ptr %5, i32 0, i32 1
  %7 = load ptr, ptr %6, align 8, !tbaa !40
  %8 = icmp eq ptr %7, null
  br i1 %8, label %14, label %9

9:                                                ; preds = %1
  %10 = load ptr, ptr %3, align 8, !tbaa !6
  %11 = getelementptr inbounds nuw %struct.lv_fs_dir_t, ptr %10, i32 0, i32 0
  %12 = load ptr, ptr %11, align 8, !tbaa !42
  %13 = icmp eq ptr %12, null
  br i1 %13, label %14, label %15

14:                                               ; preds = %9, %1
  store i32 11, ptr %2, align 4
  br label %41

15:                                               ; preds = %9
  %16 = load ptr, ptr %3, align 8, !tbaa !6
  %17 = getelementptr inbounds nuw %struct.lv_fs_dir_t, ptr %16, i32 0, i32 1
  %18 = load ptr, ptr %17, align 8, !tbaa !40
  %19 = getelementptr inbounds nuw %struct._lv_fs_drv_t, ptr %18, i32 0, i32 11
  %20 = load ptr, ptr %19, align 8, !tbaa !44
  %21 = icmp eq ptr %20, null
  br i1 %21, label %22, label %23

22:                                               ; preds = %15
  store i32 9, ptr %2, align 4
  br label %41

23:                                               ; preds = %15
  call void @llvm.lifetime.start.p0(i64 4, ptr %4) #4
  %24 = load ptr, ptr %3, align 8, !tbaa !6
  %25 = getelementptr inbounds nuw %struct.lv_fs_dir_t, ptr %24, i32 0, i32 1
  %26 = load ptr, ptr %25, align 8, !tbaa !40
  %27 = getelementptr inbounds nuw %struct._lv_fs_drv_t, ptr %26, i32 0, i32 11
  %28 = load ptr, ptr %27, align 8, !tbaa !44
  %29 = load ptr, ptr %3, align 8, !tbaa !6
  %30 = getelementptr inbounds nuw %struct.lv_fs_dir_t, ptr %29, i32 0, i32 1
  %31 = load ptr, ptr %30, align 8, !tbaa !40
  %32 = load ptr, ptr %3, align 8, !tbaa !6
  %33 = getelementptr inbounds nuw %struct.lv_fs_dir_t, ptr %32, i32 0, i32 0
  %34 = load ptr, ptr %33, align 8, !tbaa !42
  %35 = call i32 %28(ptr noundef %31, ptr noundef %34)
  store i32 %35, ptr %4, align 4, !tbaa !14
  %36 = load ptr, ptr %3, align 8, !tbaa !6
  %37 = getelementptr inbounds nuw %struct.lv_fs_dir_t, ptr %36, i32 0, i32 0
  store ptr null, ptr %37, align 8, !tbaa !42
  %38 = load ptr, ptr %3, align 8, !tbaa !6
  %39 = getelementptr inbounds nuw %struct.lv_fs_dir_t, ptr %38, i32 0, i32 1
  store ptr null, ptr %39, align 8, !tbaa !40
  %40 = load i32, ptr %4, align 4, !tbaa !14
  store i32 %40, ptr %2, align 4
  call void @llvm.lifetime.end.p0(i64 4, ptr %4) #4
  br label %41

41:                                               ; preds = %23, %22, %14
  %42 = load i32, ptr %2, align 4
  ret i32 %42
}