; Function Attrs: nounwind uwtable
define i32 @lv_fs_dir_close(ptr nocapture noundef %0) local_unnamed_addr #0 {
  %2 = getelementptr inbounds nuw i8, ptr %0, i64 8
  %3 = load ptr, ptr %2, align 8, !tbaa !35
  %4 = icmp eq ptr %3, null
  br i1 %4, label %14, label %5

5:                                                ; preds = %1
  %6 = load ptr, ptr %0, align 8, !tbaa !37
  %7 = icmp eq ptr %6, null
  br i1 %7, label %14, label %8

8:                                                ; preds = %5
  %9 = getelementptr inbounds nuw i8, ptr %3, i64 80
  %10 = load ptr, ptr %9, align 8, !tbaa !39
  %11 = icmp eq ptr %10, null
  br i1 %11, label %14, label %12

12:                                               ; preds = %8
  %13 = tail call i32 %10(ptr noundef nonnull %3, ptr noundef nonnull %6) #6
  tail call void @llvm.memset.p0.i64(ptr noundef nonnull align 8 dereferenceable(16) %0, i8 0, i64 16, i1 false)
  br label %14

14:                                               ; preds = %8, %1, %5, %12
  %.0 = phi i32 [ %13, %12 ], [ 11, %5 ], [ 11, %1 ], [ 9, %8 ]
  ret i32 %.0
}